; ModuleID = 'source-C-CXX/32/3330.c'
source_filename = "source-C-CXX/32/3330.c"
target datalayout = "e-m:e-p270:32:32-p271:32:32-p272:64:64-i64:64-f80:128-n8:16:32:64-S128"
target triple = "x86_64-pc-linux-gnu"

%struct._IO_FILE = type { i32, i8*, i8*, i8*, i8*, i8*, i8*, i8*, i8*, i8*, i8*, i8*, %struct._IO_marker*, %struct._IO_FILE*, i32, i32, i64, i16, i8, [1 x i8], i8*, i64, %struct._IO_codecvt*, %struct._IO_wide_data*, %struct._IO_FILE*, i8*, i64, i32, [20 x i8] }
%struct._IO_marker = type opaque
%struct._IO_codecvt = type opaque
%struct._IO_wide_data = type opaque

@.str = private unnamed_addr constant [3 x i8] c"%d\00", align 1
@stdin = external local_unnamed_addr global %struct._IO_FILE*, align 8

; Function Attrs: nounwind sspstrong uwtable
define dso_local i32 @main() local_unnamed_addr #0 {
  %1 = alloca i32, align 4
  %2 = alloca [256 x i8], align 16
  %3 = getelementptr inbounds [256 x i8], [256 x i8]* %2, i64 0, i64 0
  %4 = alloca [256 x i8], align 16
  %5 = getelementptr inbounds [256 x i8], [256 x i8]* %4, i64 0, i64 0
  %6 = bitcast i32* %1 to i8*
  call void @llvm.lifetime.start.p0i8(i64 4, i8* nonnull %6) #5
  %7 = getelementptr inbounds [256 x i8], [256 x i8]* %2, i64 0, i64 0
  call void @llvm.lifetime.start.p0i8(i64 256, i8* nonnull %7) #5
  call void @llvm.memset.p0i8.i64(i8* noundef nonnull align 16 dereferenceable(256) %7, i8 0, i64 256, i1 false)
  %8 = getelementptr inbounds [256 x i8], [256 x i8]* %4, i64 0, i64 0
  call void @llvm.lifetime.start.p0i8(i64 256, i8* nonnull %8) #5
  %9 = call i32 (i8*, ...) @__isoc99_scanf(i8* getelementptr inbounds ([3 x i8], [3 x i8]* @.str, i64 0, i64 0), i32* nonnull %1)
  %10 = load %struct._IO_FILE*, %struct._IO_FILE** @stdin, align 8, !tbaa !5
  %11 = call i32 @getc(%struct._IO_FILE* %10) #5
  %12 = load i32, i32* %1, align 4, !tbaa !9
  %13 = icmp sgt i32 %12, 0
  br i1 %13, label %14, label %40

14:                                               ; preds = %0, %35
  %15 = phi i32 [ %37, %35 ], [ 0, %0 ]
  call void @llvm.memset.p0i8.i64(i8* noundef nonnull align 16 dereferenceable(256) %3, i8 0, i64 256, i1 false)
  call void @llvm.memset.p0i8.i64(i8* noundef nonnull align 16 dereferenceable(256) %5, i8 0, i64 256, i1 false)
  %16 = call i32 (i8*, ...) bitcast (i32 (...)* @gets to i32 (i8*, ...)*)(i8* nonnull %7) #5
  %17 = load i8, i8* %7, align 16, !tbaa !11
  %18 = icmp eq i8 %17, 0
  br i1 %18, label %35, label %19

19:                                               ; preds = %14, %28
  %20 = phi i64 [ %29, %28 ], [ 0, %14 ]
  %21 = phi i8 [ %31, %28 ], [ %17, %14 ]
  switch i8 %21, label %28 [
    i8 65, label %25
    i8 84, label %22
    i8 67, label %23
    i8 71, label %24
  ]

22:                                               ; preds = %19
  br label %25

23:                                               ; preds = %19
  br label %25

24:                                               ; preds = %19
  br label %25

25:                                               ; preds = %19, %24, %23, %22
  %26 = phi i8 [ 65, %22 ], [ 71, %23 ], [ 67, %24 ], [ 84, %19 ]
  %27 = getelementptr inbounds [256 x i8], [256 x i8]* %4, i64 0, i64 %20
  store i8 %26, i8* %27, align 1, !tbaa !11
  br label %28

28:                                               ; preds = %25, %19
  %29 = add nuw nsw i64 %20, 1
  %30 = getelementptr inbounds [256 x i8], [256 x i8]* %2, i64 0, i64 %29
  %31 = load i8, i8* %30, align 1, !tbaa !11
  %32 = icmp ne i8 %31, 0
  %33 = icmp ult i64 %20, 254
  %34 = select i1 %32, i1 %33, i1 false
  br i1 %34, label %19, label %35, !llvm.loop !12

35:                                               ; preds = %28, %14
  %36 = call i32 @puts(i8* nonnull %8)
  %37 = add nuw nsw i32 %15, 1
  %38 = load i32, i32* %1, align 4, !tbaa !9
  %39 = icmp slt i32 %37, %38
  br i1 %39, label %14, label %40, !llvm.loop !14

40:                                               ; preds = %35, %0
  call void @llvm.lifetime.end.p0i8(i64 256, i8* nonnull %8) #5
  call void @llvm.lifetime.end.p0i8(i64 256, i8* nonnull %7) #5
  call void @llvm.lifetime.end.p0i8(i64 4, i8* nonnull %6) #5
  ret i32 0
}

; Function Attrs: argmemonly mustprogress nofree nosync nounwind willreturn
declare void @llvm.lifetime.start.p0i8(i64 immarg, i8* nocapture) #1

; Function Attrs: argmemonly mustprogress nofree nounwind willreturn writeonly
declare void @llvm.memset.p0i8.i64(i8* nocapture writeonly, i8, i64, i1 immarg) #2

; Function Attrs: nofree nounwind
declare noundef i32 @__isoc99_scanf(i8* nocapture noundef readonly, ...) local_unnamed_addr #3

declare i32 @gets(...) local_unnamed_addr #4

; Function Attrs: nofree nounwind
declare noundef i32 @puts(i8* nocapture noundef readonly) local_unnamed_addr #3

; Function Attrs: argmemonly mustprogress nofree nosync nounwind willreturn
declare void @llvm.lifetime.end.p0i8(i64 immarg, i8* nocapture) #1

; Function Attrs: nofree nounwind
declare noundef i32 @getc(%struct._IO_FILE* nocapture noundef) local_unnamed_addr #3


!llvm.module.flags = !{!0, !1, !2, !3}
!llvm.ident = !{!4}

!0 = !{i32 1, !"wchar_size", i32 4}
!1 = !{i32 7, !"PIC Level", i32 2}
!2 = !{i32 7, !"PIE Level", i32 2}
!3 = !{i32 7, !"uwtable", i32 1}
!4 = !{!"clang version 13.0.0"}
!5 = !{!6, !6, i64 0}
!6 = !{!"any pointer", !7, i64 0}
!7 = !{!"omnipotent char", !8, i64 0}
!8 = !{!"Simple C/C++ TBAA"}
!9 = !{!10, !10, i64 0}
!10 = !{!"int", !7, i64 0}
!11 = !{!7, !7, i64 0}
!12 = distinct !{!12, !13}
!13 = !{!"llvm.loop.mustprogress"}
!14 = distinct !{!14, !13}
